target datalayout = "e-m:e-p270:32:32-p271:32:32-p272:64:64-i64:64-i128:128-f80:128-n8:16:32:64-S128"
target triple = "x86_64-pc-linux-gnu"

; Function Attrs: mustprogress uwtable
define void @_Z17duAppendBoxPointsP11duDebugDrawffffffj(ptr noundef %0, float noundef %1, float noundef %2, float noundef %3, float noundef %4, float noundef %5, float noundef %6, i32 noundef %7) #2 {
  %9 = alloca ptr, align 8
  %10 = alloca float, align 4
  %11 = alloca float, align 4
  %12 = alloca float, align 4
  %13 = alloca float, align 4
  %14 = alloca float, align 4
  %15 = alloca float, align 4
  %16 = alloca i32, align 4
  store ptr %0, ptr %9, align 8
  store float %1, ptr %10, align 4
  store float %2, ptr %11, align 4
  store float %3, ptr %12, align 4
  store float %4, ptr %13, align 4
  store float %5, ptr %14, align 4
  store float %6, ptr %15, align 4
  store i32 %7, ptr %16, align 4
  %17 = load ptr, ptr %9, align 8
  %18 = icmp ne ptr %17, null
  br i1 %18, label %20, label %19

19:                                               ; preds = %8
  br label %149

20:                                               ; preds = %8
  %21 = load ptr, ptr %9, align 8
  %22 = load float, ptr %10, align 4
  %23 = load float, ptr %11, align 4
  %24 = load float, ptr %12, align 4
  %25 = load i32, ptr %16, align 4
  %26 = load ptr, ptr %21, align 8
  %27 = getelementptr inbounds ptr, ptr %26, i64 6
  %28 = load ptr, ptr %27, align 8
  call void %28(ptr noundef nonnull align 8 dereferenceable(8) %21, float noundef %22, float noundef %23, float noundef %24, i32 noundef %25)
  %29 = load ptr, ptr %9, align 8
  %30 = load float, ptr %13, align 4
  %31 = load float, ptr %11, align 4
  %32 = load float, ptr %12, align 4
  %33 = load i32, ptr %16, align 4
  %34 = load ptr, ptr %29, align 8
  %35 = getelementptr inbounds ptr, ptr %34, i64 6
  %36 = load ptr, ptr %35, align 8
  call void %36(ptr noundef nonnull align 8 dereferenceable(8) %29, float noundef %30, float noundef %31, float noundef %32, i32 noundef %33)
  %37 = load ptr, ptr %9, align 8
  %38 = load float, ptr %13, align 4
  %39 = load float, ptr %11, align 4
  %40 = load float, ptr %12, align 4
  %41 = load i32, ptr %16, align 4
  %42 = load ptr, ptr %37, align 8
  %43 = getelementptr inbounds ptr, ptr %42, i64 6
  %44 = load ptr, ptr %43, align 8
  call void %44(ptr noundef nonnull align 8 dereferenceable(8) %37, float noundef %38, float noundef %39, float noundef %40, i32 noundef %41)
  %45 = load ptr, ptr %9, align 8
  %46 = load float, ptr %13, align 4
  %47 = load float, ptr %11, align 4
  %48 = load float, ptr %15, align 4
  %49 = load i32, ptr %16, align 4
  %50 = load ptr, ptr %45, align 8
  %51 = getelementptr inbounds ptr, ptr %50, i64 6
  %52 = load ptr, ptr %51, align 8
  call void %52(ptr noundef nonnull align 8 dereferenceable(8) %45, float noundef %46, float noundef %47, float noundef %48, i32 noundef %49)
  %53 = load ptr, ptr %9, align 8
  %54 = load float, ptr %13, align 4
  %55 = load float, ptr %11, align 4
  %56 = load float, ptr %15, align 4
  %57 = load i32, ptr %16, align 4
  %58 = load ptr, ptr %53, align 8
  %59 = getelementptr inbounds ptr, ptr %58, i64 6
  %60 = load ptr, ptr %59, align 8
  call void %60(ptr noundef nonnull align 8 dereferenceable(8) %53, float noundef %54, float noundef %55, float noundef %56, i32 noundef %57)
  %61 = load ptr, ptr %9, align 8
  %62 = load float, ptr %10, align 4
  %63 = load float, ptr %11, align 4
  %64 = load float, ptr %15, align 4
  %65 = load i32, ptr %16, align 4
  %66 = load ptr, ptr %61, align 8
  %67 = getelementptr inbounds ptr, ptr %66, i64 6
  %68 = load ptr, ptr %67, align 8
  call void %68(ptr noundef nonnull align 8 dereferenceable(8) %61, float noundef %62, float noundef %63, float noundef %64, i32 noundef %65)
  %69 = load ptr, ptr %9, align 8
  %70 = load float, ptr %10, align 4
  %71 = load float, ptr %11, align 4
  %72 = load float, ptr %15, align 4
  %73 = load i32, ptr %16, align 4
  %74 = load ptr, ptr %69, align 8
  %75 = getelementptr inbounds ptr, ptr %74, i64 6
  %76 = load ptr, ptr %75, align 8
  call void %76(ptr noundef nonnull align 8 dereferenceable(8) %69, float noundef %70, float noundef %71, float noundef %72, i32 noundef %73)
  %77 = load ptr, ptr %9, align 8
  %78 = load float, ptr %10, align 4
  %79 = load float, ptr %11, align 4
  %80 = load float, ptr %12, align 4
  %81 = load i32, ptr %16, align 4
  %82 = load ptr, ptr %77, align 8
  %83 = getelementptr inbounds ptr, ptr %82, i64 6
  %84 = load ptr, ptr %83, align 8
  call void %84(ptr noundef nonnull align 8 dereferenceable(8) %77, float noundef %78, float noundef %79, float noundef %80, i32 noundef %81)
  %85 = load ptr, ptr %9, align 8
  %86 = load float, ptr %10, align 4
  %87 = load float, ptr %14, align 4
  %88 = load float, ptr %12, align 4
  %89 = load i32, ptr %16, align 4
  %90 = load ptr, ptr %85, align 8
  %91 = getelementptr inbounds ptr, ptr %90, i64 6
  %92 = load ptr, ptr %91, align 8
  call void %92(ptr noundef nonnull align 8 dereferenceable(8) %85, float noundef %86, float noundef %87, float noundef %88, i32 noundef %89)
  %93 = load ptr, ptr %9, align 8
  %94 = load float, ptr %13, align 4
  %95 = load float, ptr %14, align 4
  %96 = load float, ptr %12, align 4
  %97 = load i32, ptr %16, align 4
  %98 = load ptr, ptr %93, align 8
  %99 = getelementptr inbounds ptr, ptr %98, i64 6
  %100 = load ptr, ptr %99, align 8
  call void %100(ptr noundef nonnull align 8 dereferenceable(8) %93, float noundef %94, float noundef %95, float noundef %96, i32 noundef %97)
  %101 = load ptr, ptr %9, align 8
  %102 = load float, ptr %13, align 4
  %103 = load float, ptr %14, align 4
  %104 = load float, ptr %12, align 4
  %105 = load i32, ptr %16, align 4
  %106 = load ptr, ptr %101, align 8
  %107 = getelementptr inbounds ptr, ptr %106, i64 6
  %108 = load ptr, ptr %107, align 8
  call void %108(ptr noundef nonnull align 8 dereferenceable(8) %101, float noundef %102, float noundef %103, float noundef %104, i32 noundef %105)
  %109 = load ptr, ptr %9, align 8
  %110 = load float, ptr %13, align 4
  %111 = load float, ptr %14, align 4
  %112 = load float, ptr %15, align 4
  %113 = load i32, ptr %16, align 4
  %114 = load ptr, ptr %109, align 8
  %115 = getelementptr inbounds ptr, ptr %114, i64 6
  %116 = load ptr, ptr %115, align 8
  call void %116(ptr noundef nonnull align 8 dereferenceable(8) %109, float noundef %110, float noundef %111, float noundef %112, i32 noundef %113)
  %117 = load ptr, ptr %9, align 8
  %118 = load float, ptr %13, align 4
  %119 = load float, ptr %14, align 4
  %120 = load float, ptr %15, align 4
  %121 = load i32, ptr %16, align 4
  %122 = load ptr, ptr %117, align 8
  %123 = getelementptr inbounds ptr, ptr %122, i64 6
  %124 = load ptr, ptr %123, align 8
  call void %124(ptr noundef nonnull align 8 dereferenceable(8) %117, float noundef %118, float noundef %119, float noundef %120, i32 noundef %121)
  %125 = load ptr, ptr %9, align 8
  %126 = load float, ptr %10, align 4
  %127 = load float, ptr %14, align 4
  %128 = load float, ptr %15, align 4
  %129 = load i32, ptr %16, align 4
  %130 = load ptr, ptr %125, align 8
  %131 = getelementptr inbounds ptr, ptr %130, i64 6
  %132 = load ptr, ptr %131, align 8
  call void %132(ptr noundef nonnull align 8 dereferenceable(8) %125, float noundef %126, float noundef %127, float noundef %128, i32 noundef %129)
  %133 = load ptr, ptr %9, align 8
  %134 = load float, ptr %10, align 4
  %135 = load float, ptr %14, align 4
  %136 = load float, ptr %15, align 4
  %137 = load i32, ptr %16, align 4
  %138 = load ptr, ptr %133, align 8
  %139 = getelementptr inbounds ptr, ptr %138, i64 6
  %140 = load ptr, ptr %139, align 8
  call void %140(ptr noundef nonnull align 8 dereferenceable(8) %133, float noundef %134, float noundef %135, float noundef %136, i32 noundef %137)
  %141 = load ptr, ptr %9, align 8
  %142 = load float, ptr %10, align 4
  %143 = load float, ptr %14, align 4
  %144 = load float, ptr %12, align 4
  %145 = load i32, ptr %16, align 4
  %146 = load ptr, ptr %141, align 8
  %147 = getelementptr inbounds ptr, ptr %146, i64 6
  %148 = load ptr, ptr %147, align 8
  call void %148(ptr noundef nonnull align 8 dereferenceable(8) %141, float noundef %142, float noundef %143, float noundef %144, i32 noundef %145)
  br label %149

149:                                              ; preds = %20, %19
  ret void
}