; Function Attrs: mustprogress uwtable
define void @_Z17duAppendBoxPointsP11duDebugDrawffffffj(ptr noundef %0, float noundef %1, float noundef %2, float noundef %3, float noundef %4, float noundef %5, float noundef %6, i32 noundef %7) local_unnamed_addr #4 {
  %.not = icmp eq ptr %0, null
  br i1 %.not, label %58, label %9

9:                                                ; preds = %8
  %10 = load ptr, ptr %0, align 8
  %11 = getelementptr inbounds i8, ptr %10, i64 48
  %12 = load ptr, ptr %11, align 8
  tail call void %12(ptr noundef nonnull align 8 dereferenceable(8) %0, float noundef %1, float noundef %2, float noundef %3, i32 noundef %7)
  %13 = load ptr, ptr %0, align 8
  %14 = getelementptr inbounds i8, ptr %13, i64 48
  %15 = load ptr, ptr %14, align 8
  tail call void %15(ptr noundef nonnull align 8 dereferenceable(8) %0, float noundef %4, float noundef %2, float noundef %3, i32 noundef %7)
  %16 = load ptr, ptr %0, align 8
  %17 = getelementptr inbounds i8, ptr %16, i64 48
  %18 = load ptr, ptr %17, align 8
  tail call void %18(ptr noundef nonnull align 8 dereferenceable(8) %0, float noundef %4, float noundef %2, float noundef %3, i32 noundef %7)
  %19 = load ptr, ptr %0, align 8
  %20 = getelementptr inbounds i8, ptr %19, i64 48
  %21 = load ptr, ptr %20, align 8
  tail call void %21(ptr noundef nonnull align 8 dereferenceable(8) %0, float noundef %4, float noundef %2, float noundef %6, i32 noundef %7)
  %22 = load ptr, ptr %0, align 8
  %23 = getelementptr inbounds i8, ptr %22, i64 48
  %24 = load ptr, ptr %23, align 8
  tail call void %24(ptr noundef nonnull align 8 dereferenceable(8) %0, float noundef %4, float noundef %2, float noundef %6, i32 noundef %7)
  %25 = load ptr, ptr %0, align 8
  %26 = getelementptr inbounds i8, ptr %25, i64 48
  %27 = load ptr, ptr %26, align 8
  tail call void %27(ptr noundef nonnull align 8 dereferenceable(8) %0, float noundef %1, float noundef %2, float noundef %6, i32 noundef %7)
  %28 = load ptr, ptr %0, align 8
  %29 = getelementptr inbounds i8, ptr %28, i64 48
  %30 = load ptr, ptr %29, align 8
  tail call void %30(ptr noundef nonnull align 8 dereferenceable(8) %0, float noundef %1, float noundef %2, float noundef %6, i32 noundef %7)
  %31 = load ptr, ptr %0, align 8
  %32 = getelementptr inbounds i8, ptr %31, i64 48
  %33 = load ptr, ptr %32, align 8
  tail call void %33(ptr noundef nonnull align 8 dereferenceable(8) %0, float noundef %1, float noundef %2, float noundef %3, i32 noundef %7)
  %34 = load ptr, ptr %0, align 8
  %35 = getelementptr inbounds i8, ptr %34, i64 48
  %36 = load ptr, ptr %35, align 8
  tail call void %36(ptr noundef nonnull align 8 dereferenceable(8) %0, float noundef %1, float noundef %5, float noundef %3, i32 noundef %7)
  %37 = load ptr, ptr %0, align 8
  %38 = getelementptr inbounds i8, ptr %37, i64 48
  %39 = load ptr, ptr %38, align 8
  tail call void %39(ptr noundef nonnull align 8 dereferenceable(8) %0, float noundef %4, float noundef %5, float noundef %3, i32 noundef %7)
  %40 = load ptr, ptr %0, align 8
  %41 = getelementptr inbounds i8, ptr %40, i64 48
  %42 = load ptr, ptr %41, align 8
  tail call void %42(ptr noundef nonnull align 8 dereferenceable(8) %0, float noundef %4, float noundef %5, float noundef %3, i32 noundef %7)
  %43 = load ptr, ptr %0, align 8
  %44 = getelementptr inbounds i8, ptr %43, i64 48
  %45 = load ptr, ptr %44, align 8
  tail call void %45(ptr noundef nonnull align 8 dereferenceable(8) %0, float noundef %4, float noundef %5, float noundef %6, i32 noundef %7)
  %46 = load ptr, ptr %0, align 8
  %47 = getelementptr inbounds i8, ptr %46, i64 48
  %48 = load ptr, ptr %47, align 8
  tail call void %48(ptr noundef nonnull align 8 dereferenceable(8) %0, float noundef %4, float noundef %5, float noundef %6, i32 noundef %7)
  %49 = load ptr, ptr %0, align 8
  %50 = getelementptr inbounds i8, ptr %49, i64 48
  %51 = load ptr, ptr %50, align 8
  tail call void %51(ptr noundef nonnull align 8 dereferenceable(8) %0, float noundef %1, float noundef %5, float noundef %6, i32 noundef %7)
  %52 = load ptr, ptr %0, align 8
  %53 = getelementptr inbounds i8, ptr %52, i64 48
  %54 = load ptr, ptr %53, align 8
  tail call void %54(ptr noundef nonnull align 8 dereferenceable(8) %0, float noundef %1, float noundef %5, float noundef %6, i32 noundef %7)
  %55 = load ptr, ptr %0, align 8
  %56 = getelementptr inbounds i8, ptr %55, i64 48
  %57 = load ptr, ptr %56, align 8
  tail call void %57(ptr noundef nonnull align 8 dereferenceable(8) %0, float noundef %1, float noundef %5, float noundef %3, i32 noundef %7)
  br label %58

58:                                               ; preds = %8, %9
  ret void
}